target datalayout = "e-m:e-p270:32:32-p271:32:32-p272:64:64-i64:64-i128:128-f80:128-n8:16:32:64-S128"
target triple = "x86_64-pc-linux-gnu"

%struct.ieee802154_packet = type { i32, i32, i32, i32, i8, i8, i8, i8, i8, i8, i8, i8, i8, i8, i8, i8, i16, i16, i16, i64, i16, i64, i32, i32, i8, i32, i8, i64, %union.anon, i8, i8, ptr }
%union.anon = type { i64 }
%struct._GByteArray = type { ptr, i32 }

@thread_well_known_key = internal constant [16 x i8] c"xX\16\86\FD\B4X\0F\B0\92Tj\EC\BD\15f", align 16

; Function Attrs: alwaysinline nounwind
define internal ptr @memcpy.inline(ptr noalias %0, ptr noalias %1, i64 %2) #4 {
  %4 = alloca ptr, align 8
  %5 = alloca ptr, align 8
  %6 = alloca i64, align 8
  store ptr %0, ptr %4, align 8
  store ptr %1, ptr %5, align 8
  store i64 %2, ptr %6, align 8
  %7 = load ptr, ptr %4, align 8
  %8 = load ptr, ptr %5, align 8
  %9 = load i64, ptr %6, align 8
  %10 = load ptr, ptr %4, align 8
  %11 = call i64 @llvm.objectsize.i64.p0(ptr %10, i1 false, i1 true, i1 true)
  %12 = call ptr @__memcpy_chk(ptr noundef %7, ptr noundef %8, i64 noundef %9, i64 noundef %11) #9
  ret ptr %12
}

; Function Attrs: null_pointer_is_valid sspstrong uwtable
define internal i32 @set_thread_mac_key(ptr noundef %0, ptr noundef %1, ptr noundef %2, ptr noundef %3) #0 {
  %5 = alloca i32, align 4
  %6 = alloca ptr, align 8
  %7 = alloca ptr, align 8
  %8 = alloca ptr, align 8
  %9 = alloca ptr, align 8
  %10 = alloca ptr, align 8
  %11 = alloca i32, align 4
  store ptr %0, ptr %6, align 8
  store ptr %1, ptr %7, align 8
  store ptr %2, ptr %8, align 8
  store ptr %3, ptr %9, align 8
  call void @llvm.lifetime.start.p0(i64 8, ptr %10) #9
  store ptr null, ptr %10, align 8
  %12 = load ptr, ptr %6, align 8
  %13 = getelementptr inbounds nuw %struct.ieee802154_packet, ptr %12, i32 0, i32 23
  %14 = load i32, ptr %13, align 4
  %15 = icmp eq i32 %14, 1
  br i1 %15, label %16, label %21

16:                                               ; preds = %4
  %17 = load ptr, ptr %6, align 8
  %18 = getelementptr inbounds nuw %struct.ieee802154_packet, ptr %17, i32 0, i32 29
  %19 = load i8, ptr %18, align 8
  %20 = call ptr @set_thread_seq_ctr_from_key_index(i8 noundef zeroext %19)
  store ptr %20, ptr %10, align 8
  br label %41

21:                                               ; preds = %4
  %22 = load ptr, ptr %6, align 8
  %23 = getelementptr inbounds nuw %struct.ieee802154_packet, ptr %22, i32 0, i32 23
  %24 = load i32, ptr %23, align 4
  %25 = icmp eq i32 %24, 2
  br i1 %25, label %26, label %40

26:                                               ; preds = %21
  %27 = load ptr, ptr %6, align 8
  %28 = getelementptr inbounds nuw %struct.ieee802154_packet, ptr %27, i32 0, i32 29
  %29 = load i8, ptr %28, align 8
  %30 = zext i8 %29 to i32
  %31 = icmp eq i32 %30, 255
  br i1 %31, label %32, label %40

32:                                               ; preds = %26
  %33 = load ptr, ptr %6, align 8
  %34 = getelementptr inbounds nuw %struct.ieee802154_packet, ptr %33, i32 0, i32 28
  %35 = load i32, ptr %34, align 8
  %36 = icmp eq i32 %35, -1
  br i1 %36, label %37, label %40

37:                                               ; preds = %32
  %38 = load ptr, ptr %7, align 8
  %39 = call ptr @memcpy.inline(ptr noundef %38, ptr noundef @thread_well_known_key, i64 noundef 16) #9
  store i32 1, ptr %5, align 4
  store i32 1, ptr %11, align 4
  br label %68

40:                                               ; preds = %32, %26, %21
  br label %41

41:                                               ; preds = %40, %16
  %42 = load ptr, ptr %10, align 8
  %43 = icmp ne ptr %42, null
  br i1 %43, label %44, label %67

44:                                               ; preds = %41
  %45 = load ptr, ptr %10, align 8
  %46 = load ptr, ptr %6, align 8
  %47 = getelementptr inbounds nuw %struct.ieee802154_packet, ptr %46, i32 0, i32 17
  %48 = load i16, ptr %47, align 2
  %49 = load ptr, ptr %9, align 8
  %50 = load ptr, ptr %7, align 8
  call void @create_thread_temp_keys(ptr noundef %45, i16 noundef zeroext %48, ptr noundef %49, ptr noundef %50, ptr noundef null)
  %51 = load ptr, ptr %10, align 8
  %52 = getelementptr inbounds nuw %struct._GByteArray, ptr %51, i32 0, i32 0
  %53 = load ptr, ptr %52, align 8
  %54 = getelementptr i8, ptr %53, i64 3
  %55 = load i8, ptr %54, align 1
  %56 = zext i8 %55 to i32
  %57 = xor i32 %56, 128
  %58 = trunc i32 %57 to i8
  store i8 %58, ptr %54, align 1
  %59 = load ptr, ptr %10, align 8
  %60 = load ptr, ptr %6, align 8
  %61 = getelementptr inbounds nuw %struct.ieee802154_packet, ptr %60, i32 0, i32 17
  %62 = load i16, ptr %61, align 2
  %63 = load ptr, ptr %9, align 8
  %64 = load ptr, ptr %8, align 8
  call void @create_thread_temp_keys(ptr noundef %59, i16 noundef zeroext %62, ptr noundef %63, ptr noundef %64, ptr noundef null)
  %65 = load ptr, ptr %10, align 8
  %66 = call ptr @g_byte_array_free(ptr noundef %65, i32 noundef 1)
  store i32 2, ptr %5, align 4
  store i32 1, ptr %11, align 4
  br label %68

67:                                               ; preds = %41
  store i32 0, ptr %5, align 4
  store i32 1, ptr %11, align 4
  br label %68

68:                                               ; preds = %67, %44, %37
  call void @llvm.lifetime.end.p0(i64 8, ptr %10) #9
  %69 = load i32, ptr %5, align 4
  ret i32 %69
}