; Function Attrs: null_pointer_is_valid sspstrong uwtable
define internal range(i32 0, 3) i32 @set_thread_mac_key(ptr noundef readonly captures(none) %0, ptr noundef %1, ptr noundef %2, ptr noundef readonly captures(none) %3) #0 {
  %5 = getelementptr inbounds nuw i8, ptr %0, i64 68
  %6 = load i32, ptr %5, align 4
  switch i32 %6, label %.thread [
    i32 1, label %16
    i32 2, label %7
  ]

7:                                                ; preds = %4
  %8 = getelementptr inbounds nuw i8, ptr %0, i64 104
  %9 = load i8, ptr %8, align 8
  %10 = icmp eq i8 %9, -1
  br i1 %10, label %11, label %.thread

11:                                               ; preds = %7
  %12 = getelementptr inbounds nuw i8, ptr %0, i64 96
  %13 = load i32, ptr %12, align 8
  %14 = icmp eq i32 %13, -1
  br i1 %14, label %15, label %.thread

15:                                               ; preds = %11
  tail call void @llvm.memcpy.p0.p0.i64(ptr noundef align 1 dereferenceable(16) %1, ptr noundef nonnull align 16 dereferenceable(16) @thread_well_known_key, i64 noundef 16, i1 noundef false) #9
  br label %.thread

16:                                               ; preds = %4
  %17 = getelementptr inbounds nuw i8, ptr %0, i64 104
  %18 = load i8, ptr %17, align 8
  %19 = tail call fastcc ptr @set_thread_seq_ctr_from_key_index(i8 noundef zeroext %18)
  %.not = icmp eq ptr %19, null
  br i1 %.not, label %.thread, label %20

20:                                               ; preds = %16
  %21 = getelementptr inbounds nuw i8, ptr %0, i64 30
  %22 = load i16, ptr %21, align 2
  tail call fastcc void @create_thread_temp_keys(ptr noundef %19, i16 noundef zeroext %22, ptr noundef %3, ptr noundef %1, ptr noundef null)
  %23 = load ptr, ptr %19, align 8
  %24 = getelementptr i8, ptr %23, i64 3
  %25 = load i8, ptr %24, align 1
  %26 = xor i8 %25, -128
  store i8 %26, ptr %24, align 1
  %27 = load i16, ptr %21, align 2
  tail call fastcc void @create_thread_temp_keys(ptr noundef %19, i16 noundef zeroext %27, ptr noundef %3, ptr noundef %2, ptr noundef null)
  %28 = tail call ptr @g_byte_array_free(ptr noundef nonnull %19, i32 noundef 1)
  br label %.thread

.thread:                                          ; preds = %4, %7, %11, %16, %20, %15
  %.017 = phi i32 [ 2, %20 ], [ 1, %15 ], [ 0, %16 ], [ 0, %11 ], [ 0, %7 ], [ 0, %4 ]
  ret i32 %.017
}